target datalayout = "e-m:e-p270:32:32-p271:32:32-p272:64:64-i64:64-i128:128-f80:128-n8:16:32:64-S128"
target triple = "x86_64-pc-linux-gnu"

%struct._c_str = type { ptr, i32 }

@hf_string_data = internal global i32 0, align 4
@hf_string_size = internal global i32 0, align 4
@ett_str = internal global i32 0, align 4
@ett_kv = internal global i32 0, align 4
@.str.1666 = private unnamed_addr constant [10 x i8] c", %s = %s\00", align 1

; Function Attrs: null_pointer_is_valid sspstrong uwtable
define internal i32 @c_dissect_str(ptr noundef %0, i32 noundef %1, ptr noundef %2, ptr noundef %3, i32 noundef %4) #0 {
  %6 = alloca ptr, align 8
  %7 = alloca i32, align 4
  %8 = alloca ptr, align 8
  %9 = alloca ptr, align 8
  %10 = alloca i32, align 4
  %11 = alloca ptr, align 8
  %12 = alloca ptr, align 8
  %13 = alloca %struct._c_str, align 8
  store ptr %0, ptr %6, align 8
  store i32 %1, ptr %7, align 4
  store ptr %2, ptr %8, align 8
  store ptr %3, ptr %9, align 8
  store i32 %4, ptr %10, align 4
  call void @llvm.lifetime.start.p0(i64 8, ptr %11) #14
  call void @llvm.lifetime.start.p0(i64 8, ptr %12) #14
  call void @llvm.lifetime.start.p0(i64 16, ptr %13) #14
  %14 = load ptr, ptr %9, align 8
  %15 = load i32, ptr %10, align 4
  %16 = call i32 @tvb_get_letohl(ptr noundef %14, i32 noundef %15)
  %17 = getelementptr inbounds nuw %struct._c_str, ptr %13, i32 0, i32 1
  store i32 %16, ptr %17, align 8
  %18 = call ptr @wmem_packet_scope()
  %19 = load ptr, ptr %9, align 8
  %20 = load i32, ptr %10, align 4
  %21 = add i32 %20, 4
  %22 = getelementptr inbounds nuw %struct._c_str, ptr %13, i32 0, i32 1
  %23 = load i32, ptr %22, align 8
  %24 = call ptr @tvb_get_string_enc(ptr noundef %18, ptr noundef %19, i32 noundef %21, i32 noundef %23, i32 noundef 0)
  %25 = getelementptr inbounds nuw %struct._c_str, ptr %13, i32 0, i32 0
  store ptr %24, ptr %25, align 8
  %26 = load ptr, ptr %6, align 8
  %27 = load i32, ptr %7, align 4
  %28 = load ptr, ptr %9, align 8
  %29 = load i32, ptr %10, align 4
  %30 = getelementptr inbounds nuw %struct._c_str, ptr %13, i32 0, i32 1
  %31 = load i32, ptr %30, align 8
  %32 = add i32 4, %31
  %33 = getelementptr inbounds nuw %struct._c_str, ptr %13, i32 0, i32 0
  %34 = load ptr, ptr %33, align 8
  %35 = call ptr @proto_tree_add_string(ptr noundef %26, i32 noundef %27, ptr noundef %28, i32 noundef %29, i32 noundef %32, ptr noundef %34)
  store ptr %35, ptr %11, align 8
  %36 = load ptr, ptr %11, align 8
  %37 = load i32, ptr @ett_str, align 4
  %38 = call ptr @proto_item_add_subtree(ptr noundef %36, i32 noundef %37)
  store ptr %38, ptr %12, align 8
  %39 = load ptr, ptr %12, align 8
  %40 = load i32, ptr @hf_string_size, align 4
  %41 = load ptr, ptr %9, align 8
  %42 = load i32, ptr %10, align 4
  %43 = call ptr @proto_tree_add_item(ptr noundef %39, i32 noundef %40, ptr noundef %41, i32 noundef %42, i32 noundef 4, i32 noundef -2147483648)
  %44 = load i32, ptr %10, align 4
  %45 = add i32 %44, 4
  store i32 %45, ptr %10, align 4
  %46 = load ptr, ptr %12, align 8
  %47 = load i32, ptr @hf_string_data, align 4
  %48 = load ptr, ptr %9, align 8
  %49 = load i32, ptr %10, align 4
  %50 = getelementptr inbounds nuw %struct._c_str, ptr %13, i32 0, i32 1
  %51 = load i32, ptr %50, align 8
  %52 = call ptr @proto_tree_add_item(ptr noundef %46, i32 noundef %47, ptr noundef %48, i32 noundef %49, i32 noundef %51, i32 noundef 2)
  %53 = getelementptr inbounds nuw %struct._c_str, ptr %13, i32 0, i32 1
  %54 = load i32, ptr %53, align 8
  %55 = load i32, ptr %10, align 4
  %56 = add i32 %55, %54
  store i32 %56, ptr %10, align 4
  %57 = load ptr, ptr %8, align 8
  %58 = icmp ne ptr %57, null
  br i1 %58, label %59, label %61

59:                                               ; preds = %5
  %60 = load ptr, ptr %8, align 8
  call void @llvm.memcpy.p0.p0.i64(ptr align 8 %60, ptr align 8 %13, i64 16, i1 false)
  br label %61

61:                                               ; preds = %59, %5
  %62 = load i32, ptr %10, align 4
  call void @llvm.lifetime.end.p0(i64 16, ptr %13) #14
  call void @llvm.lifetime.end.p0(i64 8, ptr %12) #14
  call void @llvm.lifetime.end.p0(i64 8, ptr %11) #14
  ret i32 %62
}

; Function Attrs: null_pointer_is_valid sspstrong uwtable
define internal i32 @c_dissect_kv(ptr noundef %0, i32 noundef %1, i32 noundef %2, i32 noundef %3, ptr noundef %4, i32 noundef %5) #0 {
  %7 = alloca ptr, align 8
  %8 = alloca i32, align 4
  %9 = alloca i32, align 4
  %10 = alloca i32, align 4
  %11 = alloca ptr, align 8
  %12 = alloca i32, align 4
  %13 = alloca ptr, align 8
  %14 = alloca ptr, align 8
  %15 = alloca %struct._c_str, align 8
  %16 = alloca %struct._c_str, align 8
  store ptr %0, ptr %7, align 8
  store i32 %1, ptr %8, align 4
  store i32 %2, ptr %9, align 4
  store i32 %3, ptr %10, align 4
  store ptr %4, ptr %11, align 8
  store i32 %5, ptr %12, align 4
  call void @llvm.lifetime.start.p0(i64 8, ptr %13) #14
  call void @llvm.lifetime.start.p0(i64 8, ptr %14) #14
  call void @llvm.lifetime.start.p0(i64 16, ptr %15) #14
  call void @llvm.lifetime.start.p0(i64 16, ptr %16) #14
  %17 = load ptr, ptr %7, align 8
  %18 = load i32, ptr %8, align 4
  %19 = load ptr, ptr %11, align 8
  %20 = load i32, ptr %12, align 4
  %21 = call ptr @proto_tree_add_item(ptr noundef %17, i32 noundef %18, ptr noundef %19, i32 noundef %20, i32 noundef -1, i32 noundef -2147483648)
  store ptr %21, ptr %13, align 8
  %22 = load ptr, ptr %13, align 8
  %23 = load i32, ptr @ett_kv, align 4
  %24 = call ptr @proto_item_add_subtree(ptr noundef %22, i32 noundef %23)
  store ptr %24, ptr %14, align 8
  %25 = load ptr, ptr %14, align 8
  %26 = load i32, ptr %9, align 4
  %27 = load ptr, ptr %11, align 8
  %28 = load i32, ptr %12, align 4
  %29 = call i32 @c_dissect_str(ptr noundef %25, i32 noundef %26, ptr noundef %15, ptr noundef %27, i32 noundef %28)
  store i32 %29, ptr %12, align 4
  %30 = load ptr, ptr %14, align 8
  %31 = load i32, ptr %10, align 4
  %32 = load ptr, ptr %11, align 8
  %33 = load i32, ptr %12, align 4
  %34 = call i32 @c_dissect_str(ptr noundef %30, i32 noundef %31, ptr noundef %16, ptr noundef %32, i32 noundef %33)
  store i32 %34, ptr %12, align 4
  %35 = load ptr, ptr %13, align 8
  %36 = getelementptr inbounds nuw %struct._c_str, ptr %15, i32 0, i32 0
  %37 = load ptr, ptr %36, align 8
  %38 = getelementptr inbounds nuw %struct._c_str, ptr %16, i32 0, i32 0
  %39 = load ptr, ptr %38, align 8
  call void (ptr, ptr, ...) @proto_item_append_text(ptr noundef %35, ptr noundef @.str.1666, ptr noundef %37, ptr noundef %39)
  %40 = load ptr, ptr %13, align 8
  %41 = load ptr, ptr %11, align 8
  %42 = load i32, ptr %12, align 4
  call void @proto_item_set_end(ptr noundef %40, ptr noundef %41, i32 noundef %42)
  %43 = load i32, ptr %12, align 4
  call void @llvm.lifetime.end.p0(i64 16, ptr %16) #14
  call void @llvm.lifetime.end.p0(i64 16, ptr %15) #14
  call void @llvm.lifetime.end.p0(i64 8, ptr %14) #14
  call void @llvm.lifetime.end.p0(i64 8, ptr %13) #14
  ret i32 %43
}