; Function Attrs: null_pointer_is_valid sspstrong uwtable
define internal fastcc i32 @c_dissect_kv(ptr noundef %0, i32 noundef %1, i32 noundef %2, i32 noundef %3, ptr noundef %4, i32 noundef %5) unnamed_addr #0 {
  %7 = tail call ptr @proto_tree_add_item(ptr noundef %0, i32 noundef %1, ptr noundef %4, i32 noundef %5, i32 noundef -1, i32 noundef -2147483648)
  %8 = load i32, ptr @ett_kv, align 4
  %9 = tail call ptr @proto_item_add_subtree(ptr noundef %7, i32 noundef %8)
  %10 = tail call i32 @tvb_get_letohl(ptr noundef %4, i32 noundef %5)
  %11 = tail call ptr @wmem_packet_scope()
  %12 = add i32 %5, 4
  %13 = tail call ptr @tvb_get_string_enc(ptr noundef %11, ptr noundef %4, i32 noundef %12, i32 noundef %10, i32 noundef 0)
  %14 = add i32 %10, 4
  %15 = tail call ptr @proto_tree_add_string(ptr noundef %9, i32 noundef %2, ptr noundef %4, i32 noundef %5, i32 noundef %14, ptr noundef %13)
  %16 = load i32, ptr @ett_str, align 4
  %17 = tail call ptr @proto_item_add_subtree(ptr noundef %15, i32 noundef %16)
  %18 = load i32, ptr @hf_string_size, align 4
  %19 = tail call ptr @proto_tree_add_item(ptr noundef %17, i32 noundef %18, ptr noundef %4, i32 noundef %5, i32 noundef 4, i32 noundef -2147483648)
  %20 = load i32, ptr @hf_string_data, align 4
  %21 = tail call ptr @proto_tree_add_item(ptr noundef %17, i32 noundef %20, ptr noundef %4, i32 noundef %12, i32 noundef %10, i32 noundef 2)
  %22 = add i32 %10, %12
  %23 = tail call i32 @tvb_get_letohl(ptr noundef %4, i32 noundef %22)
  %24 = tail call ptr @wmem_packet_scope()
  %25 = add i32 %22, 4
  %26 = tail call ptr @tvb_get_string_enc(ptr noundef %24, ptr noundef %4, i32 noundef %25, i32 noundef %23, i32 noundef 0)
  %27 = add i32 %23, 4
  %28 = tail call ptr @proto_tree_add_string(ptr noundef %9, i32 noundef %3, ptr noundef %4, i32 noundef %22, i32 noundef %27, ptr noundef %26)
  %29 = load i32, ptr @ett_str, align 4
  %30 = tail call ptr @proto_item_add_subtree(ptr noundef %28, i32 noundef %29)
  %31 = load i32, ptr @hf_string_size, align 4
  %32 = tail call ptr @proto_tree_add_item(ptr noundef %30, i32 noundef %31, ptr noundef %4, i32 noundef %22, i32 noundef 4, i32 noundef -2147483648)
  %33 = load i32, ptr @hf_string_data, align 4
  %34 = tail call ptr @proto_tree_add_item(ptr noundef %30, i32 noundef %33, ptr noundef %4, i32 noundef %25, i32 noundef %23, i32 noundef 2)
  %35 = add i32 %23, %25
  tail call void (ptr, ptr, ...) @proto_item_append_text(ptr noundef %7, ptr noundef nonnull @.str.1666, ptr noundef %13, ptr noundef %26)
  tail call void @proto_item_set_end(ptr noundef %7, ptr noundef %4, i32 noundef %35)
  ret i32 %35
}